; Function Attrs: mustprogress uwtable
define internal fastcc noundef zeroext i1 @_ZN17double_conversion12_GLOBAL__N_116ConsumeSubStringIPKcEEbPT_S4_S3_b(ptr noundef nonnull captures(none) %0, ptr noundef readnone captures(address) %1, ptr noundef readonly captures(none) %2, i1 noundef zeroext %3) unnamed_addr #0 personality ptr @__gxx_personality_v0 {
  br i1 %3, label %.preheader, label %.preheader13.preheader

.preheader13.preheader:                           ; preds = %4
  %.promoted = load ptr, ptr %0, align 8, !tbaa !3
  br label %.preheader13

.preheader:                                       ; preds = %4, %_ZN17double_conversion12_GLOBAL__N_17ToLowerEc.exit
  %.pn.i = phi ptr [ %.011.i, %_ZN17double_conversion12_GLOBAL__N_17ToLowerEc.exit ], [ %2, %4 ]
  %.011.i = getelementptr inbounds nuw i8, ptr %.pn.i, i64 1
  %5 = load i8, ptr %.011.i, align 1, !tbaa !15
  %.not.i = icmp eq i8 %5, 0
  %6 = load ptr, ptr %0, align 8, !tbaa !3
  %7 = getelementptr inbounds nuw i8, ptr %6, i64 1
  store ptr %7, ptr %0, align 8, !tbaa !3
  %8 = icmp eq ptr %7, %1
  %or.cond = select i1 %.not.i, i1 true, i1 %8
  br i1 %or.cond, label %_ZN17double_conversion12_GLOBAL__N_120ConsumeSubStringImplIPKcPFccEEEbPT_S6_S3_T0_.exit, label %9

9:                                                ; preds = %.preheader
  %10 = load i8, ptr %7, align 1, !tbaa !15
  %11 = load atomic i8, ptr @_ZGVZN17double_conversion12_GLOBAL__N_17ToLowerEcE5cType acquire, align 8
  %12 = icmp eq i8 %11, 0
  br i1 %12, label %13, label %_ZN17double_conversion12_GLOBAL__N_17ToLowerEc.exit, !prof !21

13:                                               ; preds = %9
  %14 = tail call i32 @__cxa_guard_acquire(ptr nonnull @_ZGVZN17double_conversion12_GLOBAL__N_17ToLowerEcE5cType) #8
  %.not.i12 = icmp eq i32 %14, 0
  br i1 %.not.i12, label %_ZN17double_conversion12_GLOBAL__N_17ToLowerEc.exit, label %15

15:                                               ; preds = %13
  %16 = invoke noundef nonnull align 8 dereferenceable(8) ptr @_ZNSt6locale7classicEv()
          to label %17 unwind label %20

17:                                               ; preds = %15
  %18 = invoke noundef nonnull align 8 dereferenceable(570) ptr @_ZSt9use_facetISt5ctypeIcEERKT_RKSt6locale(ptr noundef nonnull align 8 dereferenceable(8) %16)
          to label %19 unwind label %20

19:                                               ; preds = %17
  store ptr %18, ptr @_ZZN17double_conversion12_GLOBAL__N_17ToLowerEcE5cType, align 8, !tbaa !22
  tail call void @__cxa_guard_release(ptr nonnull @_ZGVZN17double_conversion12_GLOBAL__N_17ToLowerEcE5cType) #8
  br label %_ZN17double_conversion12_GLOBAL__N_17ToLowerEc.exit

20:                                               ; preds = %17, %15
  %21 = landingpad { ptr, i32 }
          cleanup
  tail call void @__cxa_guard_abort(ptr nonnull @_ZGVZN17double_conversion12_GLOBAL__N_17ToLowerEcE5cType) #8
  resume { ptr, i32 } %21

_ZN17double_conversion12_GLOBAL__N_17ToLowerEc.exit: ; preds = %9, %13, %19
  %22 = load ptr, ptr @_ZZN17double_conversion12_GLOBAL__N_17ToLowerEcE5cType, align 8, !tbaa !22
  %23 = load ptr, ptr %22, align 8, !tbaa !24
  %24 = getelementptr inbounds nuw i8, ptr %23, i64 32
  %25 = load ptr, ptr %24, align 8
  %26 = tail call noundef signext i8 %25(ptr noundef nonnull align 8 dereferenceable(570) %22, i8 noundef signext %10)
  %27 = load i8, ptr %.011.i, align 1, !tbaa !15
  %.not13.i = icmp eq i8 %26, %27
  br i1 %.not13.i, label %.preheader, label %_ZN17double_conversion12_GLOBAL__N_120ConsumeSubStringImplIPKcPFccEEEbPT_S6_S3_T0_.exit, !llvm.loop !48

.preheader13:                                     ; preds = %.preheader13.preheader, %32
  %28 = phi ptr [ %30, %32 ], [ %.promoted, %.preheader13.preheader ]
  %.pn.i7 = phi ptr [ %.011.i8, %32 ], [ %2, %.preheader13.preheader ]
  %.011.i8 = getelementptr inbounds nuw i8, ptr %.pn.i7, i64 1
  %29 = load i8, ptr %.011.i8, align 1, !tbaa !15
  %.not.i9 = icmp eq i8 %29, 0
  %30 = getelementptr inbounds nuw i8, ptr %28, i64 1
  store ptr %30, ptr %0, align 8, !tbaa !3
  %31 = icmp eq ptr %30, %1
  %or.cond19 = select i1 %.not.i9, i1 true, i1 %31
  br i1 %or.cond19, label %_ZN17double_conversion12_GLOBAL__N_120ConsumeSubStringImplIPKcPFccEEEbPT_S6_S3_T0_.exit, label %32

32:                                               ; preds = %.preheader13
  %33 = load i8, ptr %30, align 1, !tbaa !15
  %34 = load i8, ptr %.011.i8, align 1, !tbaa !15
  %.not13.i10 = icmp eq i8 %33, %34
  br i1 %.not13.i10, label %.preheader13, label %_ZN17double_conversion12_GLOBAL__N_120ConsumeSubStringImplIPKcPFccEEEbPT_S6_S3_T0_.exit, !llvm.loop !48

_ZN17double_conversion12_GLOBAL__N_120ConsumeSubStringImplIPKcPFccEEEbPT_S6_S3_T0_.exit: ; preds = %32, %.preheader13, %_ZN17double_conversion12_GLOBAL__N_17ToLowerEc.exit, %.preheader
  %.0 = phi i1 [ %.not.i, %.preheader ], [ %.not.i, %_ZN17double_conversion12_GLOBAL__N_17ToLowerEc.exit ], [ %.not.i9, %.preheader13 ], [ %.not.i9, %32 ]
  ret i1 %.0
}